Certificate:
    Data:
        Version: 3 (0x2)
        Serial Number:
            6e:00:5f:57:ee:c4:04:98:94:c6:ec:dd:2b:00:01:00:5f:57:ee
    Signature Algorithm: sha512WithRSAEncryption
        Issuer: DC=ch, DC=cern, CN=CERN Grid Certification Authority
        Validity
            Not Before: Jul  2 19:41:13 2024 GMT
            Not After : Aug  6 19:41:13 2025 GMT
        Subject: DC=ch, DC=cern, OU=Organic Units, OU=Users, CN=alexansc, CN=875827, CN=Alexander Schmidt
        Subject Public Key Info:
            Public Key Algorithm: rsaEncryption
                Public-Key: (2048 bit)
                Modulus:
                    00:ad:08:75:e7:bd:a3:7c:cb:1a:16:06:d7:05:dd:
                    b5:23:5a:38:36:65:8f:42:1d:28:a7:8f:1b:86:d3:
                    44:0b:11:69:33:a9:1b:48:cf:64:cd:6c:df:a7:e6:
                    e2:d2:a9:c1:77:6f:65:74:f0:20:8f:05:ab:fe:5c:
                    23:85:c4:ee:16:12:91:47:05:cf:ae:35:0d:9d:5b:
                    ce:bc:e9:34:b0:da:aa:24:17:93:98:d1:65:a2:b4:
                    b5:05:de:1c:12:2d:a0:ed:41:cf:54:e6:26:da:1c:
                    a6:88:a0:d8:56:67:44:23:63:92:6d:bf:eb:b8:ff:
                    b7:04:6b:57:be:3f:f6:4e:b8:fd:4e:1c:ae:22:27:
                    65:fd:3e:cc:a7:b6:d0:1e:cb:51:b0:62:b2:d1:46:
                    dd:39:bf:ac:18:7d:e1:9c:c1:6e:05:3c:2f:67:27:
                    08:10:5a:e8:10:7e:44:28:56:cf:ec:23:d4:a9:20:
                    dd:3d:a6:fc:4f:25:16:5b:36:64:c1:cf:6d:62:ef:
                    3f:cd:20:83:4e:ba:1e:65:87:de:04:8d:00:73:fb:
                    5b:fc:b3:7d:b3:18:3a:9e:a6:50:56:54:55:9c:30:
                    ca:0b:cf:77:c0:1d:3f:03:6f:20:bd:7b:0d:fb:ff:
                    90:a2:39:d3:a7:47:98:bc:0d:ef:c6:e4:47:4b:1e:
                    ca:f3
                Exponent: 65537 (0x10001)
        X509v3 extensions:
            X509v3 Subject Key Identifier: 
                76:BD:FC:F4:C5:82:8B:7F:4F:ED:FE:C8:7E:17:6F:63:11:F5:88:9B
            X509v3 Authority Key Identifier: 
                keyid:A5:A0:FD:66:58:FD:B9:DD:7A:E1:B2:9D:9F:A3:D1:E5:50:18:94:E7

            X509v3 CRL Distribution Points: 

                Full Name:
                  URI:http://cafiles.cern.ch/cafiles/crl/CERN%20Grid%20Certification%20Authority.crl
                  URI:ldap:///CN=CERN%20Grid%20Certification%20Authority,CN=CERNPKI05,CN=CDP,CN=Public%20Key%20Services,CN=Services,CN=Configuration,DC=cern,DC=ch?certificateRevocationList?base?objectClass=cRLDistributionPoint

            Authority Information Access: 
                CA Issuers - URI:http://cafiles.cern.ch/cafiles/certificates/CERN%20Grid%20Certification%20Authority(1).crt
                CA Issuers - URI:ldap:///CN=CERN%20Grid%20Certification%20Authority,CN=AIA,CN=Public%20Key%20Services,CN=Services,CN=Configuration,DC=cern,DC=ch?cACertificate?base?objectClass=certificationAuthority
                OCSP - URI:http://ocsp.cern.ch/ocsp

            X509v3 Key Usage: critical
                Digital Signature, Key Encipherment
            1.3.6.1.4.1.311.21.7: 
                0..&+.....7............+...7...b....L......d...
            X509v3 Extended Key Usage: 
                Microsoft Encrypted File System, E-mail Protection, TLS Web Client Authentication
            1.3.6.1.4.1.311.21.10: 
                0&0..
+.....7
..0
..+.......0
..+.......
            X509v3 Subject Alternative Name: 
                othername:<unsupported>, email:alexcschmidt17@gmail.com
            1.3.6.1.4.1.311.25.2: 
                0D.B.
+.....7....4.2S-1-5-21-1526224874-1540688658-1361462980-11064352
            S/MIME Capabilities: 
                050...*.H........0...*.H........0...+....0
..*.H....
            X509v3 Certificate Policies: 
                Policy: 1.3.6.1.4.1.96.10.4.2.2.3.1
                Policy: 1.2.840.113612.5.2.2.1

    Signature Algorithm: sha512WithRSAEncryption
         07:45:c3:e1:31:67:a2:aa:1f:a1:aa:89:7d:5d:f4:8c:3d:ed:
         59:ee:5f:ea:c5:03:81:e8:b0:64:cc:26:bc:2d:90:ef:bc:e7:
         03:36:6d:e0:3e:f8:3e:d0:39:1d:0a:24:f8:5c:9e:fd:b0:9a:
         33:e6:b1:51:a0:b5:0c:53:cd:7b:dd:b6:d0:40:dc:0c:15:ca:
         86:74:75:da:a4:de:4a:ea:93:f2:f1:1c:b6:de:a3:89:fc:d9:
         78:55:03:da:6c:af:3f:17:d4:8d:ac:a4:f0:d6:be:10:c8:75:
         1f:be:f9:24:b4:72:d6:c1:45:c9:53:b4:aa:58:74:63:6a:fa:
         6a:86:d2:6d:f2:9d:79:94:90:fc:6a:19:ee:cb:7c:cd:68:b9:
         d9:29:23:9d:0e:9c:83:cd:e3:83:6c:0f:c1:ae:b2:47:4a:ab:
         9a:3a:8b:04:0c:7a:26:9a:a4:77:37:11:66:8e:ba:3d:cb:fd:
         97:1d:3e:d5:53:7d:67:cd:34:1a:0f:c3:5f:0b:24:d7:0a:bf:
         ba:3f:0c:cf:56:74:f0:31:37:6c:ad:40:ba:7e:bc:d9:6b:68:
         f0:1a:ea:96:11:66:42:0c:8a:3c:b3:73:38:e7:20:62:02:aa:
         7d:1e:ad:9b:70:f9:fa:ad:e4:a5:86:06:46:73:fb:b7:71:a6:
         ed:4e:ce:51:04:24:93:99:48:bd:d9:31:bf:d9:77:42:42:4f:
         bf:7d:3c:29:46:ae:87:53:0e:17:8d:e9:2d:93:4c:bd:2a:15:
         85:d8:29:06:2d:e8:5d:cf:c4:0c:99:cb:7a:50:e9:e0:14:ae:
         7e:a5:90:02:49:3b:0a:ee:32:78:aa:77:e7:25:fd:4f:3f:39:
         78:f9:b5:e1:4b:68:55:df:3a:0e:d3:e8:dd:21:07:3a:2a:ef:
         5b:cb:10:c7:11:54:52:97:09:ef:6b:a7:af:91:89:dd:37:ba:
         e2:58:1f:a1:b9:62:07:d9:5f:2b:7c:d2:99:9a:24:af:1e:78:
         68:2e:67:ff:9c:e3:67:92:b7:8f:3a:e5:11:d6:96:a5:ed:c6:
         6d:41:33:81:45:ba:03:7a:f0:cb:ce:73:7b:2d:f9:9e:a3:68:
         64:41:a0:7e:00:55:10:0b:07:7d:e0:c5:b2:2b:90:44:05:17:
         32:27:42:0a:0d:16:b7:4a:dd:f1:f4:03:08:79:ab:6e:1f:21:
         fb:85:41:6e:74:96:f0:87:53:0e:cd:5e:8c:19:6c:7e:c9:bb:
         25:c8:5f:a9:b2:83:a0:be:a1:60:8f:22:b0:1c:21:6b:84:77:
         c5:72:15:71:84:a0:df:25:bc:f2:f8:93:f2:07:c8:40:a7:88:
         76:87:31:36:f0:da:dd:89
-----BEGIN CERTIFICATE-----
MIIJJTCCBw2gAwIBAgITbgBfV+7EBJiUxuzdKwABAF9X7jANBgkqhkiG9w0BAQ0F
ADBWMRIwEAYKCZImiZPyLGQBGRYCY2gxFDASBgoJkiaJk/IsZAEZFgRjZXJuMSow
KAYDVQQDEyFDRVJOIEdyaWQgQ2VydGlmaWNhdGlvbiBBdXRob3JpdHkwHhcNMjQw
NzAyMTk0MTEzWhcNMjUwODA2MTk0MTEzWjCBkjESMBAGCgmSJomT8ixkARkWAmNo
MRQwEgYKCZImiZPyLGQBGRYEY2VybjEWMBQGA1UECxMNT3JnYW5pYyBVbml0czEO
MAwGA1UECxMFVXNlcnMxETAPBgNVBAMTCGFsZXhhbnNjMQ8wDQYDVQQDEwY4NzU4
MjcxGjAYBgNVBAMTEUFsZXhhbmRlciBTY2htaWR0MIIBIjANBgkqhkiG9w0BAQEF
AAOCAQ8AMIIBCgKCAQEArQh1572jfMsaFgbXBd21I1o4NmWPQh0op48bhtNECxFp
M6kbSM9kzWzfp+bi0qnBd29ldPAgjwWr/lwjhcTuFhKRRwXPrjUNnVvOvOk0sNqq
JBeTmNFlorS1Bd4cEi2g7UHPVOYm2hymiKDYVmdEI2OSbb/ruP+3BGtXvj/2Trj9
ThyuIidl/T7Mp7bQHstRsGKy0UbdOb+sGH3hnMFuBTwvZycIEFroEH5EKFbP7CPU
qSDdPab8TyUWWzZkwc9tYu8/zSCDTroeZYfeBI0Ac/tb/LN9sxg6nqZQVlRVnDDK
C893wB0/A28gvXsN+/+QojnTp0eYvA3vxuRHSx7K8wIDAQABo4IErTCCBKkwHQYD
VR0OBBYEFHa9/PTFgot/T+3+yH4Xb2MR9YibMB8GA1UdIwQYMBaAFKWg/WZY/bnd
euGynZ+j0eVQGJTnMIIBOAYDVR0fBIIBLzCCASswggEnoIIBI6CCAR+GTmh0dHA6
Ly9jYWZpbGVzLmNlcm4uY2gvY2FmaWxlcy9jcmwvQ0VSTiUyMEdyaWQlMjBDZXJ0
aWZpY2F0aW9uJTIwQXV0aG9yaXR5LmNybIaBzGxkYXA6Ly8vQ049Q0VSTiUyMEdy
aWQlMjBDZXJ0aWZpY2F0aW9uJTIwQXV0aG9yaXR5LENOPUNFUk5QS0kwNSxDTj1D
RFAsQ049UHVibGljJTIwS2V5JTIwU2VydmljZXMsQ049U2VydmljZXMsQ049Q29u
ZmlndXJhdGlvbixEQz1jZXJuLERDPWNoP2NlcnRpZmljYXRlUmV2b2NhdGlvbkxp
c3Q/YmFzZT9vYmplY3RDbGFzcz1jUkxEaXN0cmlidXRpb25Qb2ludDCCAWUGCCsG
AQUFBwEBBIIBVzCCAVMwZgYIKwYBBQUHMAKGWmh0dHA6Ly9jYWZpbGVzLmNlcm4u
Y2gvY2FmaWxlcy9jZXJ0aWZpY2F0ZXMvQ0VSTiUyMEdyaWQlMjBDZXJ0aWZpY2F0
aW9uJTIwQXV0aG9yaXR5KDEpLmNydDCBwgYIKwYBBQUHMAKGgbVsZGFwOi8vL0NO
PUNFUk4lMjBHcmlkJTIwQ2VydGlmaWNhdGlvbiUyMEF1dGhvcml0eSxDTj1BSUEs
Q049UHVibGljJTIwS2V5JTIwU2VydmljZXMsQ049U2VydmljZXMsQ049Q29uZmln
dXJhdGlvbixEQz1jZXJuLERDPWNoP2NBQ2VydGlmaWNhdGU/YmFzZT9vYmplY3RD
bGFzcz1jZXJ0aWZpY2F0aW9uQXV0aG9yaXR5MCQGCCsGAQUFBzABhhhodHRwOi8v
b2NzcC5jZXJuLmNoL29jc3AwDgYDVR0PAQH/BAQDAgWgMD0GCSsGAQQBgjcVBwQw
MC4GJisGAQQBgjcVCIO90AmC7Y0Nhu2LK4He9TeFgNBiHoWK40yBtaoEAgFkAgEQ
MCkGA1UdJQQiMCAGCisGAQQBgjcKAwQGCCsGAQUFBwMEBggrBgEFBQcDAjA1Bgkr
BgEEAYI3FQoEKDAmMAwGCisGAQQBgjcKAwQwCgYIKwYBBQUHAwQwCgYIKwYBBQUH
AwIwTQYDVR0RBEYwRKAoBgorBgEEAYI3FAIDoBoMGGFsZXhjc2NobWlkdDE3QGdt
YWlsLmNvbYEYYWxleGNzY2htaWR0MTdAZ21haWwuY29tMFMGCSsGAQQBgjcZAgRG
MESgQgYKKwYBBAGCNxkCAaA0BDJTLTEtNS0yMS0xNTI2MjI0ODc0LTE1NDA2ODg2
NTgtMTM2MTQ2Mjk4MC0xMTA2NDM1MjBEBgkqhkiG9w0BCQ8ENzA1MA4GCCqGSIb3
DQMCAgIAgDAOBggqhkiG9w0DBAICAIAwBwYFKw4DAgcwCgYIKoZIhvcNAwcwJwYD
VR0gBCAwHjAOBgwrBgEEAWAKBAICAwEwDAYKKoZIhvdMBQICATANBgkqhkiG9w0B
AQ0FAAOCAgEAB0XD4TFnoqofoaqJfV30jD3tWe5f6sUDgeiwZMwmvC2Q77znAzZt
4D74PtA5HQok+Fye/bCaM+axUaC1DFPNe9220EDcDBXKhnR12qTeSuqT8vEctt6j
ifzZeFUD2myvPxfUjayk8Na+EMh1H775JLRy1sFFyVO0qlh0Y2r6aobSbfKdeZSQ
/GoZ7st8zWi52SkjnQ6cg83jg2wPwa6yR0qrmjqLBAx6JpqkdzcRZo66Pcv9lx0+
1VN9Z800Gg/DXwsk1wq/uj8Mz1Z08DE3bK1Aun682Wto8BrqlhFmQgyKPLNzOOcg
YgKqfR6tm3D5+q3kpYYGRnP7t3Gm7U7OUQQkk5lIvdkxv9l3QkJPv308KUauh1MO
F43pLZNMvSoVhdgpBi3oXc/EDJnLelDp4BSufqWQAkk7Cu4yeKp35yX9Tz85ePm1
4UtoVd86DtPo3SEHOirvW8sQxxFUUpcJ72unr5GJ3Te64lgfobliB9lfK3zSmZok
rx54aC5n/5zjZ5K3jzrlEdaWpe3GbUEzgUW6A3rwy85zey35nqNoZEGgfgBVEAsH
feDFsiuQRAUXMidCCg0Wt0rd8fQDCHmrbh8h+4VBbnSW8IdTDs1ejBlsfsm7Jchf
qbKDoL6hYI8isBwha4R3xXIVcYSg3yW88viT8gfIQKeIdocxNvDa3Yk=
-----END CERTIFICATE-----
